; Function Attrs: mustprogress uwtable
define void @_ZN2cv16AVIReadContainer10printErrorERNS_9RiffChunkEj(ptr noundef nonnull readonly align 8 captures(none) dereferenceable(137) %0, ptr noundef nonnull readonly align 1 captures(none) dereferenceable(8) %1, i32 noundef %2) local_unnamed_addr #4 align 2 personality ptr @__gxx_personality_v0 {
  %4 = alloca %"class.std::__cxx11::basic_string", align 8
  %5 = alloca %"class.std::__cxx11::basic_string", align 8
  %6 = alloca %"class.std::__cxx11::basic_string", align 8
  %7 = load ptr, ptr %0, align 8, !tbaa !68
  %.not = icmp eq ptr %7, null
  %8 = load ptr, ptr @stderr, align 8, !tbaa !86
  %9 = and i32 %2, 255
  %10 = lshr i32 %2, 8
  %11 = and i32 %10, 255
  %12 = lshr i32 %2, 16
  %13 = and i32 %12, 255
  %14 = lshr i32 %2, 24
  br i1 %.not, label %15, label %24

15:                                               ; preds = %3
  call void @llvm.lifetime.start.p0(i64 32, ptr nonnull %4) #28
  call void (ptr, ptr, ...) @_ZN2cv6formatB5cxx11EPKcz(ptr dead_on_unwind nonnull writable sret(%"class.std::__cxx11::basic_string") align 8 %4, ptr noundef nonnull @.str, i32 noundef %9, i32 noundef %11, i32 noundef %13, i32 noundef %14)
  %16 = load ptr, ptr %4, align 8, !tbaa !28
  %17 = call i32 (ptr, ptr, ...) @fprintf(ptr noundef %8, ptr noundef nonnull @.str.29, ptr noundef %16) #34
  %18 = load ptr, ptr %4, align 8, !tbaa !28
  %19 = getelementptr inbounds nuw i8, ptr %4, i64 16
  %20 = icmp eq ptr %18, %19
  br i1 %20, label %_ZNKSt7__cxx1112basic_stringIcSt11char_traitsIcESaIcEE11_M_is_localEv.exit.thread.i.i, label %_ZNKSt7__cxx1112basic_stringIcSt11char_traitsIcESaIcEE11_M_is_localEv.exit.i.i

_ZNKSt7__cxx1112basic_stringIcSt11char_traitsIcESaIcEE11_M_is_localEv.exit.thread.i.i: ; preds = %15
  %21 = getelementptr inbounds nuw i8, ptr %4, i64 8
  %22 = load i64, ptr %21, align 8, !tbaa !26
  %23 = icmp ult i64 %22, 16
  call void @llvm.assume(i1 %23)
  br label %_ZNSt7__cxx1112basic_stringIcSt11char_traitsIcESaIcEED2Ev.exit

_ZNKSt7__cxx1112basic_stringIcSt11char_traitsIcESaIcEE11_M_is_localEv.exit.i.i: ; preds = %15
  call void @_ZdlPv(ptr noundef %18) #27
  br label %_ZNSt7__cxx1112basic_stringIcSt11char_traitsIcESaIcEED2Ev.exit

_ZNSt7__cxx1112basic_stringIcSt11char_traitsIcESaIcEED2Ev.exit: ; preds = %_ZNKSt7__cxx1112basic_stringIcSt11char_traitsIcESaIcEE11_M_is_localEv.exit.thread.i.i, %_ZNKSt7__cxx1112basic_stringIcSt11char_traitsIcESaIcEE11_M_is_localEv.exit.i.i
  call void @llvm.lifetime.end.p0(i64 32, ptr nonnull %4) #28
  br label %55

24:                                               ; preds = %3
  call void @llvm.lifetime.start.p0(i64 32, ptr nonnull %5) #28
  call void (ptr, ptr, ...) @_ZN2cv6formatB5cxx11EPKcz(ptr dead_on_unwind nonnull writable sret(%"class.std::__cxx11::basic_string") align 8 %5, ptr noundef nonnull @.str, i32 noundef %9, i32 noundef %11, i32 noundef %13, i32 noundef %14)
  %25 = load ptr, ptr %5, align 8, !tbaa !28
  call void @llvm.lifetime.start.p0(i64 32, ptr nonnull %6) #28
  %26 = load i32, ptr %1, align 1, !tbaa !87
  %27 = and i32 %26, 255
  %28 = lshr i32 %26, 8
  %29 = and i32 %28, 255
  %30 = lshr i32 %26, 16
  %31 = and i32 %30, 255
  %32 = lshr i32 %26, 24
  invoke void (ptr, ptr, ...) @_ZN2cv6formatB5cxx11EPKcz(ptr dead_on_unwind nonnull writable sret(%"class.std::__cxx11::basic_string") align 8 %6, ptr noundef nonnull @.str, i32 noundef %27, i32 noundef %29, i32 noundef %31, i32 noundef %32)
          to label %_ZN2cv14fourccToStringB5cxx11Ej.exit unwind label %47

_ZN2cv14fourccToStringB5cxx11Ej.exit:             ; preds = %24
  %33 = load ptr, ptr %6, align 8, !tbaa !28
  %34 = call i32 (ptr, ptr, ...) @fprintf(ptr noundef %8, ptr noundef nonnull @.str.27, ptr noundef %25, ptr noundef %33) #34
  %35 = load ptr, ptr %6, align 8, !tbaa !28
  %36 = getelementptr inbounds nuw i8, ptr %6, i64 16
  %37 = icmp eq ptr %35, %36
  br i1 %37, label %_ZNKSt7__cxx1112basic_stringIcSt11char_traitsIcESaIcEE11_M_is_localEv.exit.thread.i.i6, label %_ZNKSt7__cxx1112basic_stringIcSt11char_traitsIcESaIcEE11_M_is_localEv.exit.i.i5

_ZNKSt7__cxx1112basic_stringIcSt11char_traitsIcESaIcEE11_M_is_localEv.exit.thread.i.i6: ; preds = %_ZN2cv14fourccToStringB5cxx11Ej.exit
  %38 = getelementptr inbounds nuw i8, ptr %6, i64 8
  %39 = load i64, ptr %38, align 8, !tbaa !26
  %40 = icmp ult i64 %39, 16
  call void @llvm.assume(i1 %40)
  br label %_ZNSt7__cxx1112basic_stringIcSt11char_traitsIcESaIcEED2Ev.exit7

_ZNKSt7__cxx1112basic_stringIcSt11char_traitsIcESaIcEE11_M_is_localEv.exit.i.i5: ; preds = %_ZN2cv14fourccToStringB5cxx11Ej.exit
  call void @_ZdlPv(ptr noundef %35) #27
  br label %_ZNSt7__cxx1112basic_stringIcSt11char_traitsIcESaIcEED2Ev.exit7

_ZNSt7__cxx1112basic_stringIcSt11char_traitsIcESaIcEED2Ev.exit7: ; preds = %_ZNKSt7__cxx1112basic_stringIcSt11char_traitsIcESaIcEE11_M_is_localEv.exit.thread.i.i6, %_ZNKSt7__cxx1112basic_stringIcSt11char_traitsIcESaIcEE11_M_is_localEv.exit.i.i5
  call void @llvm.lifetime.end.p0(i64 32, ptr nonnull %6) #28
  %41 = load ptr, ptr %5, align 8, !tbaa !28
  %42 = getelementptr inbounds nuw i8, ptr %5, i64 16
  %43 = icmp eq ptr %41, %42
  br i1 %43, label %_ZNKSt7__cxx1112basic_stringIcSt11char_traitsIcESaIcEE11_M_is_localEv.exit.thread.i.i9, label %_ZNKSt7__cxx1112basic_stringIcSt11char_traitsIcESaIcEE11_M_is_localEv.exit.i.i8

_ZNKSt7__cxx1112basic_stringIcSt11char_traitsIcESaIcEE11_M_is_localEv.exit.thread.i.i9: ; preds = %_ZNSt7__cxx1112basic_stringIcSt11char_traitsIcESaIcEED2Ev.exit7
  %44 = getelementptr inbounds nuw i8, ptr %5, i64 8
  %45 = load i64, ptr %44, align 8, !tbaa !26
  %46 = icmp ult i64 %45, 16
  call void @llvm.assume(i1 %46)
  br label %_ZNSt7__cxx1112basic_stringIcSt11char_traitsIcESaIcEED2Ev.exit10

_ZNKSt7__cxx1112basic_stringIcSt11char_traitsIcESaIcEE11_M_is_localEv.exit.i.i8: ; preds = %_ZNSt7__cxx1112basic_stringIcSt11char_traitsIcESaIcEED2Ev.exit7
  call void @_ZdlPv(ptr noundef %41) #27
  br label %_ZNSt7__cxx1112basic_stringIcSt11char_traitsIcESaIcEED2Ev.exit10

_ZNSt7__cxx1112basic_stringIcSt11char_traitsIcESaIcEED2Ev.exit10: ; preds = %_ZNKSt7__cxx1112basic_stringIcSt11char_traitsIcESaIcEE11_M_is_localEv.exit.thread.i.i9, %_ZNKSt7__cxx1112basic_stringIcSt11char_traitsIcESaIcEE11_M_is_localEv.exit.i.i8
  call void @llvm.lifetime.end.p0(i64 32, ptr nonnull %5) #28
  br label %55

47:                                               ; preds = %24
  %48 = landingpad { ptr, i32 }
          cleanup
  call void @llvm.lifetime.end.p0(i64 32, ptr nonnull %6) #28
  %49 = load ptr, ptr %5, align 8, !tbaa !28
  %50 = getelementptr inbounds nuw i8, ptr %5, i64 16
  %51 = icmp eq ptr %49, %50
  br i1 %51, label %_ZNKSt7__cxx1112basic_stringIcSt11char_traitsIcESaIcEE11_M_is_localEv.exit.thread.i.i12, label %_ZNKSt7__cxx1112basic_stringIcSt11char_traitsIcESaIcEE11_M_is_localEv.exit.i.i11

_ZNKSt7__cxx1112basic_stringIcSt11char_traitsIcESaIcEE11_M_is_localEv.exit.thread.i.i12: ; preds = %47
  %52 = getelementptr inbounds nuw i8, ptr %5, i64 8
  %53 = load i64, ptr %52, align 8, !tbaa !26
  %54 = icmp ult i64 %53, 16
  call void @llvm.assume(i1 %54)
  br label %_ZNSt7__cxx1112basic_stringIcSt11char_traitsIcESaIcEED2Ev.exit13

_ZNKSt7__cxx1112basic_stringIcSt11char_traitsIcESaIcEE11_M_is_localEv.exit.i.i11: ; preds = %47
  call void @_ZdlPv(ptr noundef %49) #27
  br label %_ZNSt7__cxx1112basic_stringIcSt11char_traitsIcESaIcEED2Ev.exit13

_ZNSt7__cxx1112basic_stringIcSt11char_traitsIcESaIcEED2Ev.exit13: ; preds = %_ZNKSt7__cxx1112basic_stringIcSt11char_traitsIcESaIcEE11_M_is_localEv.exit.thread.i.i12, %_ZNKSt7__cxx1112basic_stringIcSt11char_traitsIcESaIcEE11_M_is_localEv.exit.i.i11
  call void @llvm.lifetime.end.p0(i64 32, ptr nonnull %5) #28
  resume { ptr, i32 } %48

55:                                               ; preds = %_ZNSt7__cxx1112basic_stringIcSt11char_traitsIcESaIcEED2Ev.exit10, %_ZNSt7__cxx1112basic_stringIcSt11char_traitsIcESaIcEED2Ev.exit
  ret void
}